target datalayout = "e-m:e-p270:32:32-p271:32:32-p272:64:64-i64:64-i128:128-f80:128-n8:16:32:64-S128"
target triple = "x86_64-pc-linux-gnu"

; Function Attrs: nounwind uwtable
define void @Abc_MergeSortCostMerge(ptr noundef %0, ptr noundef %1, ptr noundef %2, ptr noundef %3, ptr noundef %4) #0 {
  %6 = alloca ptr, align 8
  %7 = alloca ptr, align 8
  %8 = alloca ptr, align 8
  %9 = alloca ptr, align 8
  %10 = alloca ptr, align 8
  %11 = alloca i32, align 4
  %12 = alloca ptr, align 8
  store ptr %0, ptr %6, align 8
  store ptr %1, ptr %7, align 8
  store ptr %2, ptr %8, align 8
  store ptr %3, ptr %9, align 8
  store ptr %4, ptr %10, align 8
  %13 = load ptr, ptr %7, align 8
  %14 = load ptr, ptr %6, align 8
  %15 = ptrtoint ptr %13 to i64
  %16 = ptrtoint ptr %14 to i64
  %17 = sub i64 %15, %16
  %18 = sdiv exact i64 %17, 4
  %19 = load ptr, ptr %9, align 8
  %20 = load ptr, ptr %8, align 8
  %21 = ptrtoint ptr %19 to i64
  %22 = ptrtoint ptr %20 to i64
  %23 = sub i64 %21, %22
  %24 = sdiv exact i64 %23, 4
  %25 = add nsw i64 %18, %24
  %26 = trunc i64 %25 to i32
  store i32 %26, ptr %11, align 4
  %27 = load ptr, ptr %10, align 8
  store ptr %27, ptr %12, align 8
  br label %28

28:                                               ; preds = %98, %5
  %29 = load ptr, ptr %6, align 8
  %30 = load ptr, ptr %7, align 8
  %31 = icmp ult ptr %29, %30
  br i1 %31, label %32, label %36

32:                                               ; preds = %28
  %33 = load ptr, ptr %8, align 8
  %34 = load ptr, ptr %9, align 8
  %35 = icmp ult ptr %33, %34
  br label %36

36:                                               ; preds = %32, %28
  %37 = phi i1 [ false, %28 ], [ %35, %32 ]
  br i1 %37, label %38, label %99

38:                                               ; preds = %36
  %39 = load ptr, ptr %6, align 8
  %40 = getelementptr inbounds i32, ptr %39, i64 1
  %41 = load i32, ptr %40, align 4
  %42 = load ptr, ptr %8, align 8
  %43 = getelementptr inbounds i32, ptr %42, i64 1
  %44 = load i32, ptr %43, align 4
  %45 = icmp eq i32 %41, %44
  br i1 %45, label %46, label %67

46:                                               ; preds = %38
  %47 = load ptr, ptr %6, align 8
  %48 = getelementptr inbounds i32, ptr %47, i32 1
  store ptr %48, ptr %6, align 8
  %49 = load i32, ptr %47, align 4
  %50 = load ptr, ptr %10, align 8
  %51 = getelementptr inbounds i32, ptr %50, i32 1
  store ptr %51, ptr %10, align 8
  store i32 %49, ptr %50, align 4
  %52 = load ptr, ptr %6, align 8
  %53 = getelementptr inbounds i32, ptr %52, i32 1
  store ptr %53, ptr %6, align 8
  %54 = load i32, ptr %52, align 4
  %55 = load ptr, ptr %10, align 8
  %56 = getelementptr inbounds i32, ptr %55, i32 1
  store ptr %56, ptr %10, align 8
  store i32 %54, ptr %55, align 4
  %57 = load ptr, ptr %8, align 8
  %58 = getelementptr inbounds i32, ptr %57, i32 1
  store ptr %58, ptr %8, align 8
  %59 = load i32, ptr %57, align 4
  %60 = load ptr, ptr %10, align 8
  %61 = getelementptr inbounds i32, ptr %60, i32 1
  store ptr %61, ptr %10, align 8
  store i32 %59, ptr %60, align 4
  %62 = load ptr, ptr %8, align 8
  %63 = getelementptr inbounds i32, ptr %62, i32 1
  store ptr %63, ptr %8, align 8
  %64 = load i32, ptr %62, align 4
  %65 = load ptr, ptr %10, align 8
  %66 = getelementptr inbounds i32, ptr %65, i32 1
  store ptr %66, ptr %10, align 8
  store i32 %64, ptr %65, align 4
  br label %98

67:                                               ; preds = %38
  %68 = load ptr, ptr %6, align 8
  %69 = getelementptr inbounds i32, ptr %68, i64 1
  %70 = load i32, ptr %69, align 4
  %71 = load ptr, ptr %8, align 8
  %72 = getelementptr inbounds i32, ptr %71, i64 1
  %73 = load i32, ptr %72, align 4
  %74 = icmp slt i32 %70, %73
  br i1 %74, label %75, label %86

75:                                               ; preds = %67
  %76 = load ptr, ptr %6, align 8
  %77 = getelementptr inbounds i32, ptr %76, i32 1
  store ptr %77, ptr %6, align 8
  %78 = load i32, ptr %76, align 4
  %79 = load ptr, ptr %10, align 8
  %80 = getelementptr inbounds i32, ptr %79, i32 1
  store ptr %80, ptr %10, align 8
  store i32 %78, ptr %79, align 4
  %81 = load ptr, ptr %6, align 8
  %82 = getelementptr inbounds i32, ptr %81, i32 1
  store ptr %82, ptr %6, align 8
  %83 = load i32, ptr %81, align 4
  %84 = load ptr, ptr %10, align 8
  %85 = getelementptr inbounds i32, ptr %84, i32 1
  store ptr %85, ptr %10, align 8
  store i32 %83, ptr %84, align 4
  br label %97

86:                                               ; preds = %67
  %87 = load ptr, ptr %8, align 8
  %88 = getelementptr inbounds i32, ptr %87, i32 1
  store ptr %88, ptr %8, align 8
  %89 = load i32, ptr %87, align 4
  %90 = load ptr, ptr %10, align 8
  %91 = getelementptr inbounds i32, ptr %90, i32 1
  store ptr %91, ptr %10, align 8
  store i32 %89, ptr %90, align 4
  %92 = load ptr, ptr %8, align 8
  %93 = getelementptr inbounds i32, ptr %92, i32 1
  store ptr %93, ptr %8, align 8
  %94 = load i32, ptr %92, align 4
  %95 = load ptr, ptr %10, align 8
  %96 = getelementptr inbounds i32, ptr %95, i32 1
  store ptr %96, ptr %10, align 8
  store i32 %94, ptr %95, align 4
  br label %97

97:                                               ; preds = %86, %75
  br label %98

98:                                               ; preds = %97, %46
  br label %28, !llvm.loop !20

99:                                               ; preds = %36
  br label %100

100:                                              ; preds = %104, %99
  %101 = load ptr, ptr %6, align 8
  %102 = load ptr, ptr %7, align 8
  %103 = icmp ult ptr %101, %102
  br i1 %103, label %104, label %115

104:                                              ; preds = %100
  %105 = load ptr, ptr %6, align 8
  %106 = getelementptr inbounds i32, ptr %105, i32 1
  store ptr %106, ptr %6, align 8
  %107 = load i32, ptr %105, align 4
  %108 = load ptr, ptr %10, align 8
  %109 = getelementptr inbounds i32, ptr %108, i32 1
  store ptr %109, ptr %10, align 8
  store i32 %107, ptr %108, align 4
  %110 = load ptr, ptr %6, align 8
  %111 = getelementptr inbounds i32, ptr %110, i32 1
  store ptr %111, ptr %6, align 8
  %112 = load i32, ptr %110, align 4
  %113 = load ptr, ptr %10, align 8
  %114 = getelementptr inbounds i32, ptr %113, i32 1
  store ptr %114, ptr %10, align 8
  store i32 %112, ptr %113, align 4
  br label %100, !llvm.loop !21

115:                                              ; preds = %100
  br label %116

116:                                              ; preds = %120, %115
  %117 = load ptr, ptr %8, align 8
  %118 = load ptr, ptr %9, align 8
  %119 = icmp ult ptr %117, %118
  br i1 %119, label %120, label %131

120:                                              ; preds = %116
  %121 = load ptr, ptr %8, align 8
  %122 = getelementptr inbounds i32, ptr %121, i32 1
  store ptr %122, ptr %8, align 8
  %123 = load i32, ptr %121, align 4
  %124 = load ptr, ptr %10, align 8
  %125 = getelementptr inbounds i32, ptr %124, i32 1
  store ptr %125, ptr %10, align 8
  store i32 %123, ptr %124, align 4
  %126 = load ptr, ptr %8, align 8
  %127 = getelementptr inbounds i32, ptr %126, i32 1
  store ptr %127, ptr %8, align 8
  %128 = load i32, ptr %126, align 4
  %129 = load ptr, ptr %10, align 8
  %130 = getelementptr inbounds i32, ptr %129, i32 1
  store ptr %130, ptr %10, align 8
  store i32 %128, ptr %129, align 4
  br label %116, !llvm.loop !22

131:                                              ; preds = %116
  ret void
}

; Function Attrs: nounwind uwtable
define void @Abc_MergeSortCost_rec(ptr noundef %0, ptr noundef %1, ptr noundef %2) #0 {
  %4 = alloca ptr, align 8
  %5 = alloca ptr, align 8
  %6 = alloca ptr, align 8
  %7 = alloca i32, align 4
  %8 = alloca i32, align 4
  %9 = alloca i32, align 4
  %10 = alloca i32, align 4
  %11 = alloca i32, align 4
  store ptr %0, ptr %4, align 8
  store ptr %1, ptr %5, align 8
  store ptr %2, ptr %6, align 8
  %12 = load ptr, ptr %5, align 8
  %13 = load ptr, ptr %4, align 8
  %14 = ptrtoint ptr %12 to i64
  %15 = ptrtoint ptr %13 to i64
  %16 = sub i64 %14, %15
  %17 = sdiv exact i64 %16, 4
  %18 = sdiv i64 %17, 2
  %19 = trunc i64 %18 to i32
  store i32 %19, ptr %7, align 4
  %20 = load i32, ptr %7, align 4
  %21 = icmp eq i32 %20, 1
  br i1 %21, label %22, label %23

22:                                               ; preds = %3
  br label %215

23:                                               ; preds = %3
  %24 = load i32, ptr %7, align 4
  %25 = icmp eq i32 %24, 2
  br i1 %25, label %26, label %78

26:                                               ; preds = %23
  %27 = load ptr, ptr %4, align 8
  %28 = getelementptr inbounds i32, ptr %27, i64 1
  %29 = load i32, ptr %28, align 4
  %30 = load ptr, ptr %4, align 8
  %31 = getelementptr inbounds i32, ptr %30, i64 3
  %32 = load i32, ptr %31, align 4
  %33 = icmp sgt i32 %29, %32
  br i1 %33, label %34, label %77

34:                                               ; preds = %26
  %35 = load ptr, ptr %4, align 8
  %36 = getelementptr inbounds i32, ptr %35, i64 3
  %37 = load i32, ptr %36, align 4
  %38 = load ptr, ptr %4, align 8
  %39 = getelementptr inbounds i32, ptr %38, i64 1
  %40 = load i32, ptr %39, align 4
  %41 = xor i32 %40, %37
  store i32 %41, ptr %39, align 4
  %42 = load ptr, ptr %4, align 8
  %43 = getelementptr inbounds i32, ptr %42, i64 1
  %44 = load i32, ptr %43, align 4
  %45 = load ptr, ptr %4, align 8
  %46 = getelementptr inbounds i32, ptr %45, i64 3
  %47 = load i32, ptr %46, align 4
  %48 = xor i32 %47, %44
  store i32 %48, ptr %46, align 4
  %49 = load ptr, ptr %4, align 8
  %50 = getelementptr inbounds i32, ptr %49, i64 3
  %51 = load i32, ptr %50, align 4
  %52 = load ptr, ptr %4, align 8
  %53 = getelementptr inbounds i32, ptr %52, i64 1
  %54 = load i32, ptr %53, align 4
  %55 = xor i32 %54, %51
  store i32 %55, ptr %53, align 4
  %56 = load ptr, ptr %4, align 8
  %57 = getelementptr inbounds i32, ptr %56, i64 2
  %58 = load i32, ptr %57, align 4
  %59 = load ptr, ptr %4, align 8
  %60 = getelementptr inbounds i32, ptr %59, i64 0
  %61 = load i32, ptr %60, align 4
  %62 = xor i32 %61, %58
  store i32 %62, ptr %60, align 4
  %63 = load ptr, ptr %4, align 8
  %64 = getelementptr inbounds i32, ptr %63, i64 0
  %65 = load i32, ptr %64, align 4
  %66 = load ptr, ptr %4, align 8
  %67 = getelementptr inbounds i32, ptr %66, i64 2
  %68 = load i32, ptr %67, align 4
  %69 = xor i32 %68, %65
  store i32 %69, ptr %67, align 4
  %70 = load ptr, ptr %4, align 8
  %71 = getelementptr inbounds i32, ptr %70, i64 2
  %72 = load i32, ptr %71, align 4
  %73 = load ptr, ptr %4, align 8
  %74 = getelementptr inbounds i32, ptr %73, i64 0
  %75 = load i32, ptr %74, align 4
  %76 = xor i32 %75, %72
  store i32 %76, ptr %74, align 4
  br label %77

77:                                               ; preds = %34, %26
  br label %215

78:                                               ; preds = %23
  %79 = load i32, ptr %7, align 4
  %80 = icmp slt i32 %79, 8
  br i1 %80, label %81, label %172

81:                                               ; preds = %78
  store i32 0, ptr %9, align 4
  br label %82

82:                                               ; preds = %168, %81
  %83 = load i32, ptr %9, align 4
  %84 = load i32, ptr %7, align 4
  %85 = sub nsw i32 %84, 1
  %86 = icmp slt i32 %83, %85
  br i1 %86, label %87, label %171

87:                                               ; preds = %82
  %88 = load i32, ptr %9, align 4
  store i32 %88, ptr %11, align 4
  %89 = load i32, ptr %9, align 4
  %90 = add nsw i32 %89, 1
  store i32 %90, ptr %10, align 4
  br label %91

91:                                               ; preds = %114, %87
  %92 = load i32, ptr %10, align 4
  %93 = load i32, ptr %7, align 4
  %94 = icmp slt i32 %92, %93
  br i1 %94, label %95, label %117

95:                                               ; preds = %91
  %96 = load ptr, ptr %4, align 8
  %97 = load i32, ptr %10, align 4
  %98 = mul nsw i32 2, %97
  %99 = add nsw i32 %98, 1
  %100 = sext i32 %99 to i64
  %101 = getelementptr inbounds i32, ptr %96, i64 %100
  %102 = load i32, ptr %101, align 4
  %103 = load ptr, ptr %4, align 8
  %104 = load i32, ptr %11, align 4
  %105 = mul nsw i32 2, %104
  %106 = add nsw i32 %105, 1
  %107 = sext i32 %106 to i64
  %108 = getelementptr inbounds i32, ptr %103, i64 %107
  %109 = load i32, ptr %108, align 4
  %110 = icmp slt i32 %102, %109
  br i1 %110, label %111, label %113

111:                                              ; preds = %95
  %112 = load i32, ptr %10, align 4
  store i32 %112, ptr %11, align 4
  br label %113

113:                                              ; preds = %111, %95
  br label %114

114:                                              ; preds = %113
  %115 = load i32, ptr %10, align 4
  %116 = add nsw i32 %115, 1
  store i32 %116, ptr %10, align 4
  br label %91, !llvm.loop !23

117:                                              ; preds = %91
  %118 = load ptr, ptr %4, align 8
  %119 = load i32, ptr %9, align 4
  %120 = mul nsw i32 2, %119
  %121 = sext i32 %120 to i64
  %122 = getelementptr inbounds i32, ptr %118, i64 %121
  %123 = load i32, ptr %122, align 4
  store i32 %123, ptr %8, align 4
  %124 = load ptr, ptr %4, align 8
  %125 = load i32, ptr %11, align 4
  %126 = mul nsw i32 2, %125
  %127 = sext i32 %126 to i64
  %128 = getelementptr inbounds i32, ptr %124, i64 %127
  %129 = load i32, ptr %128, align 4
  %130 = load ptr, ptr %4, align 8
  %131 = load i32, ptr %9, align 4
  %132 = mul nsw i32 2, %131
  %133 = sext i32 %132 to i64
  %134 = getelementptr inbounds i32, ptr %130, i64 %133
  store i32 %129, ptr %134, align 4
  %135 = load i32, ptr %8, align 4
  %136 = load ptr, ptr %4, align 8
  %137 = load i32, ptr %11, align 4
  %138 = mul nsw i32 2, %137
  %139 = sext i32 %138 to i64
  %140 = getelementptr inbounds i32, ptr %136, i64 %139
  store i32 %135, ptr %140, align 4
  %141 = load ptr, ptr %4, align 8
  %142 = load i32, ptr %9, align 4
  %143 = mul nsw i32 2, %142
  %144 = add nsw i32 %143, 1
  %145 = sext i32 %144 to i64
  %146 = getelementptr inbounds i32, ptr %141, i64 %145
  %147 = load i32, ptr %146, align 4
  store i32 %147, ptr %8, align 4
  %148 = load ptr, ptr %4, align 8
  %149 = load i32, ptr %11, align 4
  %150 = mul nsw i32 2, %149
  %151 = add nsw i32 %150, 1
  %152 = sext i32 %151 to i64
  %153 = getelementptr inbounds i32, ptr %148, i64 %152
  %154 = load i32, ptr %153, align 4
  %155 = load ptr, ptr %4, align 8
  %156 = load i32, ptr %9, align 4
  %157 = mul nsw i32 2, %156
  %158 = add nsw i32 %157, 1
  %159 = sext i32 %158 to i64
  %160 = getelementptr inbounds i32, ptr %155, i64 %159
  store i32 %154, ptr %160, align 4
  %161 = load i32, ptr %8, align 4
  %162 = load ptr, ptr %4, align 8
  %163 = load i32, ptr %11, align 4
  %164 = mul nsw i32 2, %163
  %165 = add nsw i32 %164, 1
  %166 = sext i32 %165 to i64
  %167 = getelementptr inbounds i32, ptr %162, i64 %166
  store i32 %161, ptr %167, align 4
  br label %168

168:                                              ; preds = %117
  %169 = load i32, ptr %9, align 4
  %170 = add nsw i32 %169, 1
  store i32 %170, ptr %9, align 4
  br label %82, !llvm.loop !24

171:                                              ; preds = %82
  br label %214

172:                                              ; preds = %78
  %173 = load ptr, ptr %4, align 8
  %174 = load ptr, ptr %4, align 8
  %175 = load i32, ptr %7, align 4
  %176 = sdiv i32 %175, 2
  %177 = mul nsw i32 2, %176
  %178 = sext i32 %177 to i64
  %179 = getelementptr inbounds i32, ptr %174, i64 %178
  %180 = load ptr, ptr %6, align 8
  call void @Abc_MergeSortCost_rec(ptr noundef %173, ptr noundef %179, ptr noundef %180)
  %181 = load ptr, ptr %4, align 8
  %182 = load i32, ptr %7, align 4
  %183 = sdiv i32 %182, 2
  %184 = mul nsw i32 2, %183
  %185 = sext i32 %184 to i64
  %186 = getelementptr inbounds i32, ptr %181, i64 %185
  %187 = load ptr, ptr %5, align 8
  %188 = load ptr, ptr %6, align 8
  %189 = load i32, ptr %7, align 4
  %190 = sdiv i32 %189, 2
  %191 = mul nsw i32 2, %190
  %192 = sext i32 %191 to i64
  %193 = getelementptr inbounds i32, ptr %188, i64 %192
  call void @Abc_MergeSortCost_rec(ptr noundef %186, ptr noundef %187, ptr noundef %193)
  %194 = load ptr, ptr %4, align 8
  %195 = load ptr, ptr %4, align 8
  %196 = load i32, ptr %7, align 4
  %197 = sdiv i32 %196, 2
  %198 = mul nsw i32 2, %197
  %199 = sext i32 %198 to i64
  %200 = getelementptr inbounds i32, ptr %195, i64 %199
  %201 = load ptr, ptr %4, align 8
  %202 = load i32, ptr %7, align 4
  %203 = sdiv i32 %202, 2
  %204 = mul nsw i32 2, %203
  %205 = sext i32 %204 to i64
  %206 = getelementptr inbounds i32, ptr %201, i64 %205
  %207 = load ptr, ptr %5, align 8
  %208 = load ptr, ptr %6, align 8
  call void @Abc_MergeSortCostMerge(ptr noundef %194, ptr noundef %200, ptr noundef %206, ptr noundef %207, ptr noundef %208)
  %209 = load ptr, ptr %4, align 8
  %210 = load ptr, ptr %6, align 8
  %211 = load i32, ptr %7, align 4
  %212 = sext i32 %211 to i64
  %213 = mul i64 8, %212
  call void @llvm.memcpy.p0.p0.i64(ptr align 4 %209, ptr align 4 %210, i64 %213, i1 false)
  br label %214

214:                                              ; preds = %172, %171
  br label %215

215:                                              ; preds = %214, %77, %22
  ret void
}