; Function Attrs: nofree nosync nounwind memory(argmem: readwrite) uwtable
define void @Abc_MergeSortCost_rec(ptr noundef %0, ptr noundef %1, ptr noundef %2) local_unnamed_addr #1 {
  %4 = ptrtoint ptr %1 to i64
  %5 = ptrtoint ptr %0 to i64
  %6 = sub i64 %4, %5
  %7 = ashr exact i64 %6, 2
  %8 = sdiv i64 %7, 2
  %9 = trunc i64 %8 to i32
  switch i32 %9, label %20 [
    i32 1, label %.loopexit
    i32 2, label %10
  ]

10:                                               ; preds = %3
  %11 = getelementptr inbounds nuw i8, ptr %0, i64 4
  %12 = load i32, ptr %11, align 4
  %13 = getelementptr inbounds nuw i8, ptr %0, i64 12
  %14 = load i32, ptr %13, align 4
  %15 = icmp sgt i32 %12, %14
  br i1 %15, label %16, label %.loopexit

16:                                               ; preds = %10
  store i32 %12, ptr %13, align 4
  store i32 %14, ptr %11, align 4
  %17 = getelementptr inbounds nuw i8, ptr %0, i64 8
  %18 = load i32, ptr %17, align 4
  %19 = load i32, ptr %0, align 4
  store i32 %19, ptr %17, align 4
  store i32 %18, ptr %0, align 4
  br label %.loopexit

20:                                               ; preds = %3
  %21 = icmp slt i32 %9, 8
  br i1 %21, label %.preheader, label %50

.preheader:                                       ; preds = %20
  %22 = icmp sgt i32 %9, 1
  br i1 %22, label %.lr.ph76.preheader, label %.loopexit

.lr.ph76.preheader:                               ; preds = %.preheader
  %23 = add nsw i64 %8, 4294967295
  %wide.trip.count83 = and i64 %23, 4294967295
  %wide.trip.count = and i64 %8, 2147483647
  br label %.lr.ph.preheader

.lr.ph.preheader:                                 ; preds = %._crit_edge, %.lr.ph76.preheader
  %indvars.iv80 = phi i64 [ 0, %.lr.ph76.preheader ], [ %indvars.iv.next81, %._crit_edge ]
  %indvars.iv = phi i64 [ 1, %.lr.ph76.preheader ], [ %indvars.iv.next, %._crit_edge ]
  %indvars.iv.next81 = add nuw nsw i64 %indvars.iv80, 1
  %24 = trunc nuw nsw i64 %indvars.iv80 to i32
  br label %.lr.ph

.lr.ph:                                           ; preds = %.lr.ph.preheader, %.lr.ph
  %indvars.iv77 = phi i64 [ %indvars.iv, %.lr.ph.preheader ], [ %indvars.iv.next78, %.lr.ph ]
  %.074 = phi i32 [ %24, %.lr.ph.preheader ], [ %spec.select, %.lr.ph ]
  %25 = shl nuw nsw i64 %indvars.iv77, 1
  %26 = or disjoint i64 %25, 1
  %27 = getelementptr inbounds nuw i32, ptr %0, i64 %26
  %28 = load i32, ptr %27, align 4
  %29 = shl nsw i32 %.074, 1
  %30 = or disjoint i32 %29, 1
  %31 = sext i32 %30 to i64
  %32 = getelementptr inbounds i32, ptr %0, i64 %31
  %33 = load i32, ptr %32, align 4
  %34 = icmp slt i32 %28, %33
  %35 = trunc nuw nsw i64 %indvars.iv77 to i32
  %spec.select = select i1 %34, i32 %35, i32 %.074
  %indvars.iv.next78 = add nuw nsw i64 %indvars.iv77, 1
  %exitcond.not = icmp eq i64 %indvars.iv.next78, %wide.trip.count
  br i1 %exitcond.not, label %._crit_edge, label %.lr.ph, !llvm.loop !23

._crit_edge:                                      ; preds = %.lr.ph
  %36 = shl nuw nsw i64 %indvars.iv80, 1
  %37 = getelementptr inbounds nuw i32, ptr %0, i64 %36
  %38 = load i32, ptr %37, align 4
  %39 = shl nsw i32 %spec.select, 1
  %40 = sext i32 %39 to i64
  %41 = getelementptr inbounds i32, ptr %0, i64 %40
  %42 = load i32, ptr %41, align 4
  store i32 %42, ptr %37, align 4
  store i32 %38, ptr %41, align 4
  %43 = or disjoint i64 %36, 1
  %44 = getelementptr inbounds nuw i32, ptr %0, i64 %43
  %45 = load i32, ptr %44, align 4
  %46 = or disjoint i32 %39, 1
  %47 = sext i32 %46 to i64
  %48 = getelementptr inbounds i32, ptr %0, i64 %47
  %49 = load i32, ptr %48, align 4
  store i32 %49, ptr %44, align 4
  store i32 %45, ptr %48, align 4
  %indvars.iv.next = add nuw nsw i64 %indvars.iv, 1
  %exitcond84.not = icmp eq i64 %indvars.iv.next81, %wide.trip.count83
  br i1 %exitcond84.not, label %.loopexit, label %.lr.ph.preheader, !llvm.loop !24

50:                                               ; preds = %20
  %51 = and i64 %8, 2147483646
  %52 = getelementptr inbounds nuw i32, ptr %0, i64 %51
  tail call void @Abc_MergeSortCost_rec(ptr noundef %0, ptr noundef %52, ptr noundef %2)
  %53 = getelementptr inbounds nuw i32, ptr %2, i64 %51
  tail call void @Abc_MergeSortCost_rec(ptr noundef %52, ptr noundef %1, ptr noundef %53)
  %54 = icmp ne i64 %51, 0
  %55 = icmp ult ptr %52, %1
  %56 = and i1 %54, %55
  br i1 %56, label %.lr.ph.i, label %.preheader49.i

.preheader49.i:                                   ; preds = %85, %50
  %.044.lcssa.i = phi ptr [ %2, %50 ], [ %.145.i, %85 ]
  %.041.lcssa.i = phi ptr [ %52, %50 ], [ %.142.i, %85 ]
  %.0.lcssa.i = phi ptr [ %0, %50 ], [ %.1.i, %85 ]
  %57 = icmp ult ptr %.0.lcssa.i, %52
  br i1 %57, label %.lr.ph57.i, label %.preheader.i

.lr.ph.i:                                         ; preds = %50, %85
  %.052.i = phi ptr [ %.1.i, %85 ], [ %0, %50 ]
  %.04151.i = phi ptr [ %.142.i, %85 ], [ %52, %50 ]
  %.04450.i = phi ptr [ %.145.i, %85 ], [ %2, %50 ]
  %58 = getelementptr inbounds nuw i8, ptr %.052.i, i64 4
  %59 = load i32, ptr %58, align 4
  %60 = getelementptr inbounds nuw i8, ptr %.04151.i, i64 4
  %61 = load i32, ptr %60, align 4
  %62 = icmp eq i32 %59, %61
  %63 = getelementptr inbounds nuw i8, ptr %.04450.i, i64 4
  br i1 %62, label %64, label %74

64:                                               ; preds = %.lr.ph.i
  %65 = load i32, ptr %.052.i, align 4
  store i32 %65, ptr %.04450.i, align 4
  %66 = getelementptr inbounds nuw i8, ptr %.052.i, i64 8
  %67 = load i32, ptr %58, align 4
  %68 = getelementptr inbounds nuw i8, ptr %.04450.i, i64 8
  store i32 %67, ptr %63, align 4
  %69 = load i32, ptr %.04151.i, align 4
  %70 = getelementptr inbounds nuw i8, ptr %.04450.i, i64 12
  store i32 %69, ptr %68, align 4
  %71 = getelementptr inbounds nuw i8, ptr %.04151.i, i64 8
  %72 = load i32, ptr %60, align 4
  %73 = getelementptr inbounds nuw i8, ptr %.04450.i, i64 16
  store i32 %72, ptr %70, align 4
  br label %85

74:                                               ; preds = %.lr.ph.i
  %75 = icmp slt i32 %59, %61
  %76 = getelementptr inbounds nuw i8, ptr %.04450.i, i64 8
  br i1 %75, label %77, label %81

77:                                               ; preds = %74
  %78 = load i32, ptr %.052.i, align 4
  store i32 %78, ptr %.04450.i, align 4
  %79 = getelementptr inbounds nuw i8, ptr %.052.i, i64 8
  %80 = load i32, ptr %58, align 4
  store i32 %80, ptr %63, align 4
  br label %85

81:                                               ; preds = %74
  %82 = load i32, ptr %.04151.i, align 4
  store i32 %82, ptr %.04450.i, align 4
  %83 = getelementptr inbounds nuw i8, ptr %.04151.i, i64 8
  %84 = load i32, ptr %60, align 4
  store i32 %84, ptr %63, align 4
  br label %85

85:                                               ; preds = %81, %77, %64
  %.145.i = phi ptr [ %73, %64 ], [ %76, %77 ], [ %76, %81 ]
  %.142.i = phi ptr [ %71, %64 ], [ %.04151.i, %77 ], [ %83, %81 ]
  %.1.i = phi ptr [ %66, %64 ], [ %79, %77 ], [ %.052.i, %81 ]
  %86 = icmp ult ptr %.1.i, %52
  %87 = icmp ult ptr %.142.i, %1
  %88 = select i1 %86, i1 %87, i1 false
  br i1 %88, label %.lr.ph.i, label %.preheader49.i, !llvm.loop !20

.preheader.i:                                     ; preds = %.lr.ph57.i, %.preheader49.i
  %.246.lcssa.i = phi ptr [ %.044.lcssa.i, %.preheader49.i ], [ %95, %.lr.ph57.i ]
  %89 = icmp ult ptr %.041.lcssa.i, %1
  br i1 %89, label %.lr.ph61.i, label %Abc_MergeSortCostMerge.exit

.lr.ph57.i:                                       ; preds = %.preheader49.i, %.lr.ph57.i
  %.256.i = phi ptr [ %93, %.lr.ph57.i ], [ %.0.lcssa.i, %.preheader49.i ]
  %.24655.i = phi ptr [ %95, %.lr.ph57.i ], [ %.044.lcssa.i, %.preheader49.i ]
  %90 = getelementptr inbounds nuw i8, ptr %.256.i, i64 4
  %91 = load i32, ptr %.256.i, align 4
  %92 = getelementptr inbounds nuw i8, ptr %.24655.i, i64 4
  store i32 %91, ptr %.24655.i, align 4
  %93 = getelementptr inbounds nuw i8, ptr %.256.i, i64 8
  %94 = load i32, ptr %90, align 4
  %95 = getelementptr inbounds nuw i8, ptr %.24655.i, i64 8
  store i32 %94, ptr %92, align 4
  %96 = icmp ult ptr %93, %52
  br i1 %96, label %.lr.ph57.i, label %.preheader.i, !llvm.loop !21

.lr.ph61.i:                                       ; preds = %.preheader.i, %.lr.ph61.i
  %.24360.i = phi ptr [ %100, %.lr.ph61.i ], [ %.041.lcssa.i, %.preheader.i ]
  %.359.i = phi ptr [ %102, %.lr.ph61.i ], [ %.246.lcssa.i, %.preheader.i ]
  %97 = getelementptr inbounds nuw i8, ptr %.24360.i, i64 4
  %98 = load i32, ptr %.24360.i, align 4
  %99 = getelementptr inbounds nuw i8, ptr %.359.i, i64 4
  store i32 %98, ptr %.359.i, align 4
  %100 = getelementptr inbounds nuw i8, ptr %.24360.i, i64 8
  %101 = load i32, ptr %97, align 4
  %102 = getelementptr inbounds nuw i8, ptr %.359.i, i64 8
  store i32 %101, ptr %99, align 4
  %103 = icmp ult ptr %100, %1
  br i1 %103, label %.lr.ph61.i, label %Abc_MergeSortCostMerge.exit, !llvm.loop !22

Abc_MergeSortCostMerge.exit:                      ; preds = %.lr.ph61.i, %.preheader.i
  %104 = shl nsw i64 %8, 3
  %105 = and i64 %104, 17179869176
  tail call void @llvm.memcpy.p0.p0.i64(ptr align 4 %0, ptr align 4 %2, i64 %105, i1 false)
  br label %.loopexit

.loopexit:                                        ; preds = %._crit_edge, %.preheader, %3, %Abc_MergeSortCostMerge.exit, %10, %16
  ret void
}